; Function Attrs: mustprogress nounwind uwtable
define dso_local void @_ZN5clang7CodeGen15CodeGenFunction10EmitLValueEPKNS_4ExprENS0_14KnownNonNull_tE(ptr dead_on_unwind noalias writable sret(%"class.clang::CodeGen::LValue") align 8 %0, ptr noundef nonnull align 8 dereferenceable(6488) %1, ptr noundef %2, i32 noundef %3) local_unnamed_addr #0 align 2 {
  tail call void @_ZN5clang7CodeGen15CodeGenFunction16EmitLValueHelperEPKNS_4ExprENS0_14KnownNonNull_tE(ptr dead_on_unwind writable sret(%"class.clang::CodeGen::LValue") align 8 %0, ptr noundef nonnull align 8 dereferenceable(6488) %1, ptr noundef %2, i32 noundef %3)
  %.not = icmp eq i32 %3, 0
  br i1 %.not, label %10, label %5

5:                                                ; preds = %4
  %6 = getelementptr inbounds nuw i8, ptr %0, i64 8
  %.0.copyload.i.i.i.i.i = load i64, ptr %6, align 8
  %7 = and i64 %.0.copyload.i.i.i.i.i, 4
  %.not3 = icmp eq i64 %7, 0
  br i1 %.not3, label %8, label %10

8:                                                ; preds = %5
  %9 = or disjoint i64 %.0.copyload.i.i.i.i.i, 4
  store i64 %9, ptr %6, align 8, !noalias !59
  br label %10

10:                                               ; preds = %8, %5, %4
  ret void
}